ccopy_reg
_reconstructor
p1
(ccommon.DependencyGraph
DepGraph
p2
c__builtin__
object
p3
NtRp4
(dp5
S'nodes'
p6
(dp7
I0
g1
(ccommon.DependencyGraph
DNode
p8
g3
NtRp9
(dp10
S'index'
p11
I0
sS'parents'
p12
(lp13
sS'children'
p14
(lp15
I5
asS'str'
p16
S'ROOT'
p17
sbsI3
g1
(g8
g3
NtRp18
(dp19
g11
I3
sg12
(lp20
I5
asg14
(lp21
sg16
Vbook
p22
sbsI5
g1
(g8
g3
NtRp23
(dp24
g11
I5
sg12
(lp25
I0
asg14
(lp26
I3
aI10
asg16
Vsay-01
p27
sbsI8
g1
(g8
g3
NtRp28
(dp29
g11
I8
sg12
(lp30
I12
aI10
aI16
asg14
(lp31
I9
asg16
Vboa
p32
sbsI9
g1
(g8
g3
NtRp33
(dp34
g11
I9
sg12
(lp35
I8
asg14
(lp36
sg16
Vconstrictor
p37
sbsI10
g1
(g8
g3
NtRp38
(dp39
g11
I10
sg12
(lp40
I5
asg14
(lp41
I8
aI12
aI16
asg16
Vswallow-01
p42
sbsI12
g1
(g8
g3
NtRp43
(dp44
g11
I12
sg12
(lp45
I10
aI16
asg14
(lp46
I13
aI8
asg16
Vprey
p47
sbsI13
g1
(g8
g3
NtRp48
(dp49
g11
I13
sg12
(lp50
I12
asg14
(lp51
sg16
Vwhole
p52
sbsI15
g1
(g8
g3
NtRp53
(dp54
g11
I15
sg12
(lp55
I16
asg14
(lp56
sg16
g1
(ccommon.util
Polarity
p57
c__builtin__
str
p58
S'-'
tRp59
sbsI16
g1
(g8
g3
NtRp60
(dp61
g11
I16
sg12
(lp62
I10
asg14
(lp63
I15
aI8
aI12
asg16
Vchew-01
p64
sbssS'root'
p65
I0
sb.